; Function Attrs: nounwind sspstrong uwtable
define dso_local void @v9fs_rflush(ptr noundef %0) local_unnamed_addr #1 {
  tail call void @v9fs_req_recv(ptr noundef %0, i8 noundef zeroext 109)
  %2 = load ptr, ptr @alloc, align 8
  %3 = getelementptr inbounds nuw i8, ptr %0, i64 24
  %4 = load i64, ptr %3, align 8
  tail call void @guest_free(ptr noundef %2, i64 noundef %4) #14
  %5 = load ptr, ptr @alloc, align 8
  %6 = getelementptr inbounds nuw i8, ptr %0, i64 40
  %7 = load i64, ptr %6, align 8
  tail call void @guest_free(ptr noundef %5, i64 noundef %7) #14
  tail call void @g_free(ptr noundef %0) #14
  ret void
}